; Function Attrs: nounwind uwtable
define dso_local range(i32 -1, 1) i32 @jobacct_storage_p_step_start(ptr noundef %0, ptr noundef %1) local_unnamed_addr #0 {
  %3 = alloca %struct.persist_msg_t, align 8
  %4 = alloca %struct.dbd_step_start_msg, align 8
  call void @llvm.lifetime.start.p0(i64 24, ptr nonnull %3) #11
  %5 = getelementptr inbounds nuw i8, ptr %3, i64 16
  store i64 0, ptr %5, align 8
  call void @llvm.lifetime.start.p0(i64 144, ptr nonnull %4) #11
  call void @llvm.memset.p0.i64(ptr noundef nonnull align 8 dereferenceable(144) %4, i8 0, i64 144, i1 false)
  %6 = call i32 @as_build_step_start_msg(ptr noundef nonnull %4, ptr noundef %1) #11
  %.not = icmp eq i32 %6, 0
  br i1 %.not, label %7, label %11

7:                                                ; preds = %2
  %8 = getelementptr inbounds nuw i8, ptr %3, i64 16
  store i16 1442, ptr %8, align 8
  store ptr %0, ptr %3, align 8
  %9 = getelementptr inbounds nuw i8, ptr %3, i64 8
  store ptr %4, ptr %9, align 8
  %10 = call i32 @slurmdbd_agent_send(i16 noundef zeroext 11008, ptr noundef nonnull %3) #11
  %.lobit = ashr i32 %10, 31
  br label %11

11:                                               ; preds = %7, %2
  %.0 = phi i32 [ -1, %2 ], [ %.lobit, %7 ]
  call void @llvm.lifetime.end.p0(i64 144, ptr nonnull %4) #11
  call void @llvm.lifetime.end.p0(i64 24, ptr nonnull %3) #11
  ret i32 %.0
}